target datalayout = "e-m:e-p270:32:32-p271:32:32-p272:64:64-i64:64-i128:128-f80:128-n8:16:32:64-S128"
target triple = "x86_64-pc-linux-gnu"

%struct.ParseContext_ = type { %struct.TokenData, i32, %union.SourceSpan, %union.SourceSpan, ptr, %struct.Lexer }
%struct.TokenData = type { ptr, i64, %union.anon.86 }
%union.anon.86 = type { %struct.anon.89 }
%struct.anon.89 = type { %struct.Int128_, i8 }
%struct.Int128_ = type { i64, i64 }
%union.SourceSpan = type { i64 }
%struct.Lexer = type { ptr, ptr, ptr, ptr, i32, i32, ptr, ptr, ptr, %struct.TokenData, %union.SourceSpan, i32, i32 }
%struct.Decl_ = type { ptr, ptr, %union.SourceSpan, i64, %union.anon, i32, %union.anon.1, i64, ptr, ptr, ptr, %union.anon.2 }
%union.anon = type { ptr }
%union.anon.1 = type { i16 }
%union.anon.2 = type { %struct.FuncDecl }
%struct.FuncDecl = type { i32, [4 x i8], %struct.Signature_, i32, i32, %union.anon.9 }
%struct.Signature_ = type <{ %struct.CalleeAttributes, i16, i8, i32, i32, [4 x i8], ptr }>
%struct.CalleeAttributes = type { i8 }
%union.anon.9 = type { %struct.anon.10 }
%struct.anon.10 = type { i16, %union.anon.11 }
%union.anon.11 = type { ptr }

@.str.16 = private unnamed_addr constant [13 x i8] c"Expected ';'\00", align 1
@poisoned_decl = external global ptr, align 8

; Function Attrs: nounwind uwtable
define internal ptr @parse_top_level_const_declaration(ptr noundef %0, i1 noundef zeroext %1) #0 {
  %3 = alloca ptr, align 8
  %4 = alloca ptr, align 8
  %5 = alloca i32, align 4
  %6 = alloca ptr, align 8
  %7 = alloca ptr, align 8
  %8 = alloca i8, align 1
  %9 = alloca ptr, align 8
  %10 = alloca ptr, align 8
  store ptr %0, ptr %7, align 8
  %11 = zext i1 %1 to i8
  store i8 %11, ptr %8, align 1
  %12 = load ptr, ptr %7, align 8
  %13 = load i8, ptr %8, align 1
  %14 = trunc i8 %13 to i1
  %15 = call ptr @parse_const_declaration(ptr noundef %12, i1 noundef zeroext true, i1 noundef zeroext %14)
  store ptr %15, ptr %9, align 8
  %16 = load ptr, ptr %9, align 8
  store ptr %16, ptr %3, align 8
  %17 = load ptr, ptr %3, align 8
  %18 = icmp ne ptr %17, null
  br i1 %18, label %19, label %26

19:                                               ; preds = %2
  %20 = load ptr, ptr %3, align 8
  %21 = getelementptr inbounds %struct.Decl_, ptr %20, i32 0, i32 3
  %22 = load i64, ptr %21, align 8
  %23 = and i64 %22, 127
  %24 = trunc i64 %23 to i32
  %25 = icmp ne i32 %24, 0
  br label %26

26:                                               ; preds = %19, %2
  %27 = phi i1 [ true, %2 ], [ %25, %19 ]
  br i1 %27, label %30, label %28

28:                                               ; preds = %26
  %29 = load ptr, ptr @poisoned_decl, align 8
  store ptr %29, ptr %6, align 8
  br label %49

30:                                               ; preds = %26
  %31 = load ptr, ptr %9, align 8
  store ptr %31, ptr %10, align 8
  br label %32

32:                                               ; preds = %30
  %33 = load ptr, ptr %7, align 8
  store ptr %33, ptr %4, align 8
  store i32 9, ptr %5, align 4
  %34 = load ptr, ptr %4, align 8
  %35 = getelementptr inbounds %struct.ParseContext_, ptr %34, i32 0, i32 1
  %36 = load i32, ptr %35, align 8
  %37 = load i32, ptr %5, align 4
  %38 = icmp eq i32 %36, %37
  br i1 %38, label %45, label %39

39:                                               ; preds = %32
  %40 = load ptr, ptr %7, align 8
  %41 = getelementptr inbounds %struct.ParseContext_, ptr %40, i32 0, i32 3
  %42 = getelementptr inbounds %union.SourceSpan, ptr %41, i32 0, i32 0
  %43 = load i64, ptr %42, align 8
  call void (i64, ptr, ...) @sema_error_at_after(i64 %43, ptr noundef @.str.16)
  %44 = load ptr, ptr @poisoned_decl, align 8
  store ptr %44, ptr %6, align 8
  br label %49

45:                                               ; preds = %32
  %46 = load ptr, ptr %7, align 8
  call void @advance(ptr noundef %46)
  br label %47

47:                                               ; preds = %45
  %48 = load ptr, ptr %10, align 8
  store ptr %48, ptr %6, align 8
  br label %49

49:                                               ; preds = %47, %39, %28
  %50 = load ptr, ptr %6, align 8
  ret ptr %50
}