; Function Attrs: nounwind uwtable
define internal fastcc ptr @parse_top_level_const_declaration(ptr noundef %0, i1 noundef zeroext %1) unnamed_addr #0 {
  %3 = tail call ptr @parse_const_declaration(ptr noundef %0, i1 noundef zeroext true, i1 noundef zeroext %1)
  %.not = icmp eq ptr %3, null
  br i1 %.not, label %.critedge, label %4

4:                                                ; preds = %2
  %5 = getelementptr inbounds i8, ptr %3, i64 24
  %6 = load i64, ptr %5, align 8
  %7 = and i64 %6, 127
  %.not13 = icmp eq i64 %7, 0
  br i1 %.not13, label %8, label %.critedge

8:                                                ; preds = %4
  %9 = load ptr, ptr @poisoned_decl, align 8
  br label %18

.critedge:                                        ; preds = %2, %4
  %10 = getelementptr inbounds i8, ptr %0, i64 40
  %11 = load i32, ptr %10, align 8
  %12 = icmp eq i32 %11, 9
  br i1 %12, label %17, label %13

13:                                               ; preds = %.critedge
  %14 = getelementptr inbounds i8, ptr %0, i64 56
  %15 = load i64, ptr %14, align 8
  tail call void (i64, ptr, ...) @sema_error_at_after(i64 %15, ptr noundef nonnull @.str.16) #8
  %16 = load ptr, ptr @poisoned_decl, align 8
  br label %18

17:                                               ; preds = %.critedge
  tail call void @advance(ptr noundef nonnull %0) #8
  br label %18

18:                                               ; preds = %17, %13, %8
  %.0 = phi ptr [ %3, %17 ], [ %16, %13 ], [ %9, %8 ]
  ret ptr %.0
}